; Function Attrs: mustprogress nofree norecurse nosync nounwind willreturn memory(readwrite, inaccessiblemem: none) uwtable
define hidden void @_ZN4llvm16DAGTypeLegalizer20ExpandRes_BUILD_PAIREPNS_6SDNodeERNS_7SDValueES4_(ptr noundef nonnull readnone align 8 captures(none) dereferenceable(2512) %0, ptr noundef readonly captures(none) %1, ptr noundef nonnull writeonly align 8 captures(none) dereferenceable(12) initializes((0, 12)) %2, ptr noundef nonnull writeonly align 8 captures(none) dereferenceable(12) initializes((0, 12)) %3) local_unnamed_addr #5 align 2 {
  %5 = getelementptr inbounds nuw i8, ptr %1, i64 40
  %6 = load ptr, ptr %5, align 8
  tail call void @llvm.memcpy.p0.p0.i64(ptr noundef nonnull align 8 dereferenceable(12) %2, ptr noundef nonnull align 8 dereferenceable(12) %6, i64 12, i1 false)
  %7 = load ptr, ptr %5, align 8
  %8 = getelementptr inbounds nuw i8, ptr %7, i64 40
  tail call void @llvm.memcpy.p0.p0.i64(ptr noundef nonnull align 8 dereferenceable(12) %3, ptr noundef nonnull align 8 dereferenceable(12) %8, i64 12, i1 false)
  ret void
}